target datalayout = "e-m:e-p270:32:32-p271:32:32-p272:64:64-i64:64-i128:128-f80:128-n8:16:32:64-S128"
target triple = "x86_64-pc-linux-gnu"

%struct.ptr_infos = type { ptr, ptr, i32, i32 }
%struct.ptr_info = type { ptr, i32 }

@.str.15 = private unnamed_addr constant [53 x i8] c"bytecode: registered ctx variable at %p (+%u) id %u\0A\00", align 1

; Function Attrs: nounwind uwtable
define internal i64 @ptr_compose(i32 noundef %0, i32 noundef %1) #0 {
  %3 = alloca i32, align 4
  %4 = alloca i32, align 4
  %5 = alloca i64, align 8
  store i32 %0, ptr %3, align 4
  store i32 %1, ptr %4, align 4
  %6 = load i32, ptr %3, align 4
  %7 = sext i32 %6 to i64
  store i64 %7, ptr %5, align 8
  %8 = load i64, ptr %5, align 8
  %9 = shl i64 %8, 32
  %10 = load i32, ptr %4, align 4
  %11 = zext i32 %10 to i64
  %12 = or i64 %9, %11
  ret i64 %12
}

; Function Attrs: nounwind uwtable
define internal i64 @ptr_register_glob_fixedid(ptr noundef %0, ptr noundef %1, i32 noundef %2, i32 noundef %3) #0 {
  %5 = alloca i64, align 8
  %6 = alloca ptr, align 8
  %7 = alloca ptr, align 8
  %8 = alloca i32, align 4
  %9 = alloca i32, align 4
  %10 = alloca ptr, align 8
  store ptr %0, ptr %6, align 8
  store ptr %1, ptr %7, align 8
  store i32 %2, ptr %8, align 4
  store i32 %3, ptr %9, align 4
  %11 = load i32, ptr %9, align 4
  %12 = load ptr, ptr %6, align 8
  %13 = getelementptr inbounds %struct.ptr_infos, ptr %12, i32 0, i32 3
  %14 = load i32, ptr %13, align 4
  %15 = icmp ugt i32 %11, %14
  br i1 %15, label %16, label %47

16:                                               ; preds = %4
  %17 = load ptr, ptr %6, align 8
  %18 = getelementptr inbounds %struct.ptr_infos, ptr %17, i32 0, i32 1
  %19 = load ptr, ptr %18, align 8
  %20 = load i32, ptr %9, align 4
  %21 = zext i32 %20 to i64
  %22 = mul i64 16, %21
  %23 = call ptr @cli_safer_realloc(ptr noundef %19, i64 noundef %22)
  store ptr %23, ptr %10, align 8
  %24 = load ptr, ptr %10, align 8
  %25 = icmp ne ptr %24, null
  br i1 %25, label %27, label %26

26:                                               ; preds = %16
  store i64 0, ptr %5, align 8
  br label %70

27:                                               ; preds = %16
  %28 = load ptr, ptr %10, align 8
  %29 = load ptr, ptr %6, align 8
  %30 = getelementptr inbounds %struct.ptr_infos, ptr %29, i32 0, i32 3
  %31 = load i32, ptr %30, align 4
  %32 = zext i32 %31 to i64
  %33 = getelementptr inbounds %struct.ptr_info, ptr %28, i64 %32
  %34 = load i32, ptr %9, align 4
  %35 = load ptr, ptr %6, align 8
  %36 = getelementptr inbounds %struct.ptr_infos, ptr %35, i32 0, i32 3
  %37 = load i32, ptr %36, align 4
  %38 = sub i32 %34, %37
  %39 = zext i32 %38 to i64
  %40 = mul i64 %39, 16
  call void @llvm.memset.p0.i64(ptr align 8 %33, i8 0, i64 %40, i1 false)
  %41 = load ptr, ptr %10, align 8
  %42 = load ptr, ptr %6, align 8
  %43 = getelementptr inbounds %struct.ptr_infos, ptr %42, i32 0, i32 1
  store ptr %41, ptr %43, align 8
  %44 = load i32, ptr %9, align 4
  %45 = load ptr, ptr %6, align 8
  %46 = getelementptr inbounds %struct.ptr_infos, ptr %45, i32 0, i32 3
  store i32 %44, ptr %46, align 4
  br label %47

47:                                               ; preds = %27, %4
  %48 = load ptr, ptr %6, align 8
  %49 = getelementptr inbounds %struct.ptr_infos, ptr %48, i32 0, i32 1
  %50 = load ptr, ptr %49, align 8
  %51 = load i32, ptr %9, align 4
  %52 = sub i32 %51, 1
  %53 = zext i32 %52 to i64
  %54 = getelementptr inbounds %struct.ptr_info, ptr %50, i64 %53
  store ptr %54, ptr %10, align 8
  %55 = load ptr, ptr %7, align 8
  %56 = icmp ne ptr %55, null
  br i1 %56, label %58, label %57

57:                                               ; preds = %47
  store i32 0, ptr %8, align 4
  br label %58

58:                                               ; preds = %57, %47
  %59 = load ptr, ptr %7, align 8
  %60 = load ptr, ptr %10, align 8
  %61 = getelementptr inbounds %struct.ptr_info, ptr %60, i32 0, i32 0
  store ptr %59, ptr %61, align 8
  %62 = load i32, ptr %8, align 4
  %63 = load ptr, ptr %10, align 8
  %64 = getelementptr inbounds %struct.ptr_info, ptr %63, i32 0, i32 1
  store i32 %62, ptr %64, align 8
  %65 = load ptr, ptr %7, align 8
  %66 = load i32, ptr %8, align 4
  %67 = load i32, ptr %9, align 4
  call void (ptr, ...) @cli_dbgmsg(ptr noundef @.str.15, ptr noundef %65, i32 noundef %66, i32 noundef %67)
  %68 = load i32, ptr %9, align 4
  %69 = call i64 @ptr_compose(i32 noundef %68, i32 noundef 0)
  store i64 %69, ptr %5, align 8
  br label %70

70:                                               ; preds = %58, %26
  %71 = load i64, ptr %5, align 8
  ret i64 %71
}

; Function Attrs: nounwind uwtable
define internal i64 @ptr_register_glob(ptr noundef %0, ptr noundef %1, i32 noundef %2) #0 {
  %4 = alloca i64, align 8
  %5 = alloca ptr, align 8
  %6 = alloca ptr, align 8
  %7 = alloca i32, align 4
  store ptr %0, ptr %5, align 8
  store ptr %1, ptr %6, align 8
  store i32 %2, ptr %7, align 4
  %8 = load ptr, ptr %6, align 8
  %9 = icmp ne ptr %8, null
  br i1 %9, label %11, label %10

10:                                               ; preds = %3
  store i64 0, ptr %4, align 8
  br label %20

11:                                               ; preds = %3
  %12 = load ptr, ptr %5, align 8
  %13 = load ptr, ptr %6, align 8
  %14 = load i32, ptr %7, align 4
  %15 = load ptr, ptr %5, align 8
  %16 = getelementptr inbounds %struct.ptr_infos, ptr %15, i32 0, i32 3
  %17 = load i32, ptr %16, align 4
  %18 = add i32 %17, 1
  %19 = call i64 @ptr_register_glob_fixedid(ptr noundef %12, ptr noundef %13, i32 noundef %14, i32 noundef %18)
  store i64 %19, ptr %4, align 8
  br label %20

20:                                               ; preds = %11, %10
  %21 = load i64, ptr %4, align 8
  ret i64 %21
}