; Function Attrs: nounwind uwtable
define internal fastcc i64 @ptr_register_glob(ptr nocapture noundef %0, ptr noundef %1, i32 noundef %2) unnamed_addr #0 {
  %.not = icmp eq ptr %1, null
  br i1 %.not, label %ptr_register_glob_fixedid.exit, label %4

4:                                                ; preds = %3
  %5 = getelementptr inbounds i8, ptr %0, i64 20
  %6 = load i32, ptr %5, align 4
  %7 = add i32 %6, 1
  %.not6 = icmp eq i32 %6, -1
  %8 = getelementptr inbounds i8, ptr %0, i64 8
  %9 = load ptr, ptr %8, align 8
  br i1 %.not6, label %._crit_edge.i, label %10

10:                                               ; preds = %4
  %11 = zext i32 %7 to i64
  %12 = shl nuw nsw i64 %11, 4
  %13 = tail call ptr @cli_safer_realloc(ptr noundef %9, i64 noundef %12) #11
  %.not.i = icmp eq ptr %13, null
  br i1 %.not.i, label %ptr_register_glob_fixedid.exit, label %14

14:                                               ; preds = %10
  %15 = load i32, ptr %5, align 4
  %16 = zext i32 %15 to i64
  %17 = getelementptr inbounds %struct.ptr_info, ptr %13, i64 %16
  %18 = sub i32 %7, %15
  %19 = zext i32 %18 to i64
  %20 = shl nuw nsw i64 %19, 4
  tail call void @llvm.memset.p0.i64(ptr nonnull align 8 %17, i8 0, i64 %20, i1 false)
  store ptr %13, ptr %8, align 8
  store i32 %7, ptr %5, align 4
  br label %._crit_edge.i

._crit_edge.i:                                    ; preds = %14, %4
  %21 = phi ptr [ %13, %14 ], [ %9, %4 ]
  %22 = zext i32 %6 to i64
  %23 = getelementptr inbounds %struct.ptr_info, ptr %21, i64 %22
  store ptr %1, ptr %23, align 8
  %24 = getelementptr inbounds i8, ptr %23, i64 8
  store i32 %2, ptr %24, align 8
  tail call void (ptr, ...) @cli_dbgmsg(ptr noundef nonnull @.str.15, ptr noundef nonnull %1, i32 noundef %2, i32 noundef %7) #11
  %25 = sext i32 %7 to i64
  %26 = shl nsw i64 %25, 32
  br label %ptr_register_glob_fixedid.exit

ptr_register_glob_fixedid.exit:                   ; preds = %._crit_edge.i, %10, %3
  %.0 = phi i64 [ 0, %3 ], [ %26, %._crit_edge.i ], [ 0, %10 ]
  ret i64 %.0
}